target datalayout = "e-m:e-p270:32:32-p271:32:32-p272:64:64-i64:64-i128:128-f80:128-n8:16:32:64-S128"
target triple = "x86_64-pc-linux-gnu"

%"class.icu_77::double_conversion::Bignum" = type { i16, i16, [128 x i32] }

; Function Attrs: mustprogress nounwind uwtable
define noundef nonnull align 4 dereferenceable(4) ptr @_ZNK6icu_7717double_conversion6Bignum8RawBigitEi(ptr noundef nonnull align 4 dereferenceable(516) %0, i32 noundef %1) #0 align 2 {
  %3 = alloca ptr, align 8
  %4 = alloca i32, align 4
  store ptr %0, ptr %3, align 8, !tbaa !3
  store i32 %1, ptr %4, align 4, !tbaa !8
  %5 = load ptr, ptr %3, align 8
  %6 = getelementptr inbounds nuw %"class.icu_77::double_conversion::Bignum", ptr %5, i32 0, i32 2
  %7 = load i32, ptr %4, align 4, !tbaa !8
  %8 = sext i32 %7 to i64
  %9 = getelementptr inbounds [128 x i32], ptr %6, i64 0, i64 %8
  ret ptr %9
}

; Function Attrs: mustprogress nounwind uwtable
define noundef nonnull align 4 dereferenceable(4) ptr @_ZN6icu_7717double_conversion6Bignum8RawBigitEi(ptr noundef nonnull align 4 dereferenceable(516) %0, i32 noundef %1) #0 align 2 {
  %3 = alloca ptr, align 8
  %4 = alloca i32, align 4
  store ptr %0, ptr %3, align 8, !tbaa !3
  store i32 %1, ptr %4, align 4, !tbaa !8
  %5 = load ptr, ptr %3, align 8
  %6 = getelementptr inbounds nuw %"class.icu_77::double_conversion::Bignum", ptr %5, i32 0, i32 2
  %7 = load i32, ptr %4, align 4, !tbaa !8
  %8 = sext i32 %7 to i64
  %9 = getelementptr inbounds [128 x i32], ptr %6, i64 0, i64 %8
  ret ptr %9
}

; Function Attrs: mustprogress nounwind uwtable
define linkonce_odr void @_ZN6icu_7717double_conversion6Bignum14EnsureCapacityEi(i32 noundef %0) #0 comdat align 2 {
  %2 = alloca i32, align 4
  store i32 %0, ptr %2, align 4, !tbaa !8
  %3 = load i32, ptr %2, align 4, !tbaa !8
  %4 = icmp sgt i32 %3, 128
  br i1 %4, label %5, label %6

5:                                                ; preds = %1
  call void @abort() #7
  unreachable

6:                                                ; preds = %1
  ret void
}

; Function Attrs: inlinehint mustprogress nounwind uwtable
define linkonce_odr noundef nonnull align 4 dereferenceable(4) ptr @_ZSt3maxIiERKT_S2_S2_(ptr noundef nonnull align 4 dereferenceable(4) %0, ptr noundef nonnull align 4 dereferenceable(4) %1) #4 comdat {
  %3 = alloca ptr, align 8
  %4 = alloca ptr, align 8
  %5 = alloca ptr, align 8
  store ptr %0, ptr %4, align 8, !tbaa !40
  store ptr %1, ptr %5, align 8, !tbaa !40
  %6 = load ptr, ptr %4, align 8, !tbaa !40
  %7 = load i32, ptr %6, align 4, !tbaa !8
  %8 = load ptr, ptr %5, align 8, !tbaa !40
  %9 = load i32, ptr %8, align 4, !tbaa !8
  %10 = icmp slt i32 %7, %9
  br i1 %10, label %11, label %13

11:                                               ; preds = %2
  %12 = load ptr, ptr %5, align 8, !tbaa !40
  store ptr %12, ptr %3, align 8
  br label %15

13:                                               ; preds = %2
  %14 = load ptr, ptr %4, align 8, !tbaa !40
  store ptr %14, ptr %3, align 8
  br label %15

15:                                               ; preds = %13, %11
  %16 = load ptr, ptr %3, align 8
  ret ptr %16
}

; Function Attrs: mustprogress nounwind uwtable
define linkonce_odr noundef i32 @_ZNK6icu_7717double_conversion6Bignum11BigitLengthEv(ptr noundef nonnull align 4 dereferenceable(516) %0) #0 comdat align 2 {
  %2 = alloca ptr, align 8
  store ptr %0, ptr %2, align 8, !tbaa !3
  %3 = load ptr, ptr %2, align 8
  %4 = getelementptr inbounds nuw %"class.icu_77::double_conversion::Bignum", ptr %3, i32 0, i32 0
  %5 = load i16, ptr %4, align 4, !tbaa !12
  %6 = sext i16 %5 to i32
  %7 = getelementptr inbounds nuw %"class.icu_77::double_conversion::Bignum", ptr %3, i32 0, i32 1
  %8 = load i16, ptr %7, align 2, !tbaa !14
  %9 = sext i16 %8 to i32
  %10 = add nsw i32 %6, %9
  ret i32 %10
}

; Function Attrs: mustprogress uwtable
define void @_ZN6icu_7717double_conversion6Bignum5AlignERKS1_(ptr noundef nonnull align 4 dereferenceable(516) %0, ptr noundef nonnull align 4 dereferenceable(516) %1) #1 align 2 {
  %3 = alloca ptr, align 8
  %4 = alloca ptr, align 8
  %5 = alloca i32, align 4
  %6 = alloca i32, align 4
  %7 = alloca i32, align 4
  store ptr %0, ptr %3, align 8, !tbaa !3
  store ptr %1, ptr %4, align 8, !tbaa !3
  %8 = load ptr, ptr %3, align 8
  %9 = getelementptr inbounds nuw %"class.icu_77::double_conversion::Bignum", ptr %8, i32 0, i32 1
  %10 = load i16, ptr %9, align 2, !tbaa !14
  %11 = sext i16 %10 to i32
  %12 = load ptr, ptr %4, align 8, !tbaa !3
  %13 = getelementptr inbounds nuw %"class.icu_77::double_conversion::Bignum", ptr %12, i32 0, i32 1
  %14 = load i16, ptr %13, align 2, !tbaa !14
  %15 = sext i16 %14 to i32
  %16 = icmp sgt i32 %11, %15
  br i1 %16, label %17, label %79

17:                                               ; preds = %2
  call void @llvm.lifetime.start.p0(i64 4, ptr %5) #6
  %18 = getelementptr inbounds nuw %"class.icu_77::double_conversion::Bignum", ptr %8, i32 0, i32 1
  %19 = load i16, ptr %18, align 2, !tbaa !14
  %20 = sext i16 %19 to i32
  %21 = load ptr, ptr %4, align 8, !tbaa !3
  %22 = getelementptr inbounds nuw %"class.icu_77::double_conversion::Bignum", ptr %21, i32 0, i32 1
  %23 = load i16, ptr %22, align 2, !tbaa !14
  %24 = sext i16 %23 to i32
  %25 = sub nsw i32 %20, %24
  store i32 %25, ptr %5, align 4, !tbaa !8
  %26 = getelementptr inbounds nuw %"class.icu_77::double_conversion::Bignum", ptr %8, i32 0, i32 0
  %27 = load i16, ptr %26, align 4, !tbaa !12
  %28 = sext i16 %27 to i32
  %29 = load i32, ptr %5, align 4, !tbaa !8
  %30 = add nsw i32 %28, %29
  call void @_ZN6icu_7717double_conversion6Bignum14EnsureCapacityEi(i32 noundef %30)
  call void @llvm.lifetime.start.p0(i64 4, ptr %6) #6
  %31 = getelementptr inbounds nuw %"class.icu_77::double_conversion::Bignum", ptr %8, i32 0, i32 0
  %32 = load i16, ptr %31, align 4, !tbaa !12
  %33 = sext i16 %32 to i32
  %34 = sub nsw i32 %33, 1
  store i32 %34, ptr %6, align 4, !tbaa !8
  br label %35

35:                                               ; preds = %47, %17
  %36 = load i32, ptr %6, align 4, !tbaa !8
  %37 = icmp sge i32 %36, 0
  br i1 %37, label %39, label %38

38:                                               ; preds = %35
  call void @llvm.lifetime.end.p0(i64 4, ptr %6) #6
  br label %50

39:                                               ; preds = %35
  %40 = load i32, ptr %6, align 4, !tbaa !8
  %41 = call noundef nonnull align 4 dereferenceable(4) ptr @_ZN6icu_7717double_conversion6Bignum8RawBigitEi(ptr noundef nonnull align 4 dereferenceable(516) %8, i32 noundef %40)
  %42 = load i32, ptr %41, align 4, !tbaa !8
  %43 = load i32, ptr %6, align 4, !tbaa !8
  %44 = load i32, ptr %5, align 4, !tbaa !8
  %45 = add nsw i32 %43, %44
  %46 = call noundef nonnull align 4 dereferenceable(4) ptr @_ZN6icu_7717double_conversion6Bignum8RawBigitEi(ptr noundef nonnull align 4 dereferenceable(516) %8, i32 noundef %45)
  store i32 %42, ptr %46, align 4, !tbaa !8
  br label %47

47:                                               ; preds = %39
  %48 = load i32, ptr %6, align 4, !tbaa !8
  %49 = add nsw i32 %48, -1
  store i32 %49, ptr %6, align 4, !tbaa !8
  br label %35, !llvm.loop !38

50:                                               ; preds = %38
  call void @llvm.lifetime.start.p0(i64 4, ptr %7) #6
  store i32 0, ptr %7, align 4, !tbaa !8
  br label %51

51:                                               ; preds = %59, %50
  %52 = load i32, ptr %7, align 4, !tbaa !8
  %53 = load i32, ptr %5, align 4, !tbaa !8
  %54 = icmp slt i32 %52, %53
  br i1 %54, label %56, label %55

55:                                               ; preds = %51
  call void @llvm.lifetime.end.p0(i64 4, ptr %7) #6
  br label %62

56:                                               ; preds = %51
  %57 = load i32, ptr %7, align 4, !tbaa !8
  %58 = call noundef nonnull align 4 dereferenceable(4) ptr @_ZN6icu_7717double_conversion6Bignum8RawBigitEi(ptr noundef nonnull align 4 dereferenceable(516) %8, i32 noundef %57)
  store i32 0, ptr %58, align 4, !tbaa !8
  br label %59

59:                                               ; preds = %56
  %60 = load i32, ptr %7, align 4, !tbaa !8
  %61 = add nsw i32 %60, 1
  store i32 %61, ptr %7, align 4, !tbaa !8
  br label %51, !llvm.loop !39

62:                                               ; preds = %55
  %63 = load i32, ptr %5, align 4, !tbaa !8
  %64 = trunc i32 %63 to i16
  %65 = sext i16 %64 to i32
  %66 = getelementptr inbounds nuw %"class.icu_77::double_conversion::Bignum", ptr %8, i32 0, i32 0
  %67 = load i16, ptr %66, align 4, !tbaa !12
  %68 = sext i16 %67 to i32
  %69 = add nsw i32 %68, %65
  %70 = trunc i32 %69 to i16
  store i16 %70, ptr %66, align 4, !tbaa !12
  %71 = load i32, ptr %5, align 4, !tbaa !8
  %72 = trunc i32 %71 to i16
  %73 = sext i16 %72 to i32
  %74 = getelementptr inbounds nuw %"class.icu_77::double_conversion::Bignum", ptr %8, i32 0, i32 1
  %75 = load i16, ptr %74, align 2, !tbaa !14
  %76 = sext i16 %75 to i32
  %77 = sub nsw i32 %76, %73
  %78 = trunc i32 %77 to i16
  store i16 %78, ptr %74, align 2, !tbaa !14
  call void @llvm.lifetime.end.p0(i64 4, ptr %5) #6
  br label %79

79:                                               ; preds = %62, %2
  ret void
}

; Function Attrs: mustprogress uwtable
define void @_ZN6icu_7717double_conversion6Bignum9AddBignumERKS1_(ptr noundef nonnull align 4 dereferenceable(516) %0, ptr noundef nonnull align 4 dereferenceable(516) %1) #1 align 2 {
  %3 = alloca ptr, align 8
  %4 = alloca ptr, align 8
  %5 = alloca i32, align 4
  %6 = alloca i32, align 4
  %7 = alloca i32, align 4
  %8 = alloca i32, align 4
  %9 = alloca i32, align 4
  %10 = alloca i32, align 4
  %11 = alloca i32, align 4
  %12 = alloca i32, align 4
  %13 = alloca i32, align 4
  %14 = alloca i32, align 4
  %15 = alloca i32, align 4
  store ptr %0, ptr %3, align 8, !tbaa !3
  store ptr %1, ptr %4, align 8, !tbaa !3
  %16 = load ptr, ptr %3, align 8
  %17 = load ptr, ptr %4, align 8, !tbaa !3
  call void @_ZN6icu_7717double_conversion6Bignum5AlignERKS1_(ptr noundef nonnull align 4 dereferenceable(516) %16, ptr noundef nonnull align 4 dereferenceable(516) %17)
  call void @llvm.lifetime.start.p0(i64 4, ptr %5) #6
  %18 = call noundef i32 @_ZNK6icu_7717double_conversion6Bignum11BigitLengthEv(ptr noundef nonnull align 4 dereferenceable(516) %16)
  store i32 %18, ptr %5, align 4, !tbaa !8
  call void @llvm.lifetime.start.p0(i64 4, ptr %6) #6
  %19 = load ptr, ptr %4, align 8, !tbaa !3
  %20 = call noundef i32 @_ZNK6icu_7717double_conversion6Bignum11BigitLengthEv(ptr noundef nonnull align 4 dereferenceable(516) %19)
  store i32 %20, ptr %6, align 4, !tbaa !8
  %21 = call noundef nonnull align 4 dereferenceable(4) ptr @_ZSt3maxIiERKT_S2_S2_(ptr noundef nonnull align 4 dereferenceable(4) %5, ptr noundef nonnull align 4 dereferenceable(4) %6)
  %22 = load i32, ptr %21, align 4, !tbaa !8
  %23 = add nsw i32 1, %22
  %24 = getelementptr inbounds nuw %"class.icu_77::double_conversion::Bignum", ptr %16, i32 0, i32 1
  %25 = load i16, ptr %24, align 2, !tbaa !14
  %26 = sext i16 %25 to i32
  %27 = sub nsw i32 %23, %26
  call void @_ZN6icu_7717double_conversion6Bignum14EnsureCapacityEi(i32 noundef %27)
  call void @llvm.lifetime.end.p0(i64 4, ptr %6) #6
  call void @llvm.lifetime.end.p0(i64 4, ptr %5) #6
  call void @llvm.lifetime.start.p0(i64 4, ptr %7) #6
  store i32 0, ptr %7, align 4, !tbaa !8
  call void @llvm.lifetime.start.p0(i64 4, ptr %8) #6
  %28 = load ptr, ptr %4, align 8, !tbaa !3
  %29 = getelementptr inbounds nuw %"class.icu_77::double_conversion::Bignum", ptr %28, i32 0, i32 1
  %30 = load i16, ptr %29, align 2, !tbaa !14
  %31 = sext i16 %30 to i32
  %32 = getelementptr inbounds nuw %"class.icu_77::double_conversion::Bignum", ptr %16, i32 0, i32 1
  %33 = load i16, ptr %32, align 2, !tbaa !14
  %34 = sext i16 %33 to i32
  %35 = sub nsw i32 %31, %34
  store i32 %35, ptr %8, align 4, !tbaa !8
  call void @llvm.lifetime.start.p0(i64 4, ptr %9) #6
  %36 = getelementptr inbounds nuw %"class.icu_77::double_conversion::Bignum", ptr %16, i32 0, i32 0
  %37 = load i16, ptr %36, align 4, !tbaa !12
  %38 = sext i16 %37 to i32
  store i32 %38, ptr %9, align 4, !tbaa !8
  br label %39

39:                                               ; preds = %47, %2
  %40 = load i32, ptr %9, align 4, !tbaa !8
  %41 = load i32, ptr %8, align 4, !tbaa !8
  %42 = icmp slt i32 %40, %41
  br i1 %42, label %44, label %43

43:                                               ; preds = %39
  call void @llvm.lifetime.end.p0(i64 4, ptr %9) #6
  br label %50

44:                                               ; preds = %39
  %45 = load i32, ptr %9, align 4, !tbaa !8
  %46 = call noundef nonnull align 4 dereferenceable(4) ptr @_ZN6icu_7717double_conversion6Bignum8RawBigitEi(ptr noundef nonnull align 4 dereferenceable(516) %16, i32 noundef %45)
  store i32 0, ptr %46, align 4, !tbaa !8
  br label %47

47:                                               ; preds = %44
  %48 = load i32, ptr %9, align 4, !tbaa !8
  %49 = add nsw i32 %48, 1
  store i32 %49, ptr %9, align 4, !tbaa !8
  br label %39, !llvm.loop !35

50:                                               ; preds = %43
  call void @llvm.lifetime.start.p0(i64 4, ptr %10) #6
  store i32 0, ptr %10, align 4, !tbaa !8
  br label %51

51:                                               ; preds = %88, %50
  %52 = load i32, ptr %10, align 4, !tbaa !8
  %53 = load ptr, ptr %4, align 8, !tbaa !3
  %54 = getelementptr inbounds nuw %"class.icu_77::double_conversion::Bignum", ptr %53, i32 0, i32 0
  %55 = load i16, ptr %54, align 4, !tbaa !12
  %56 = sext i16 %55 to i32
  %57 = icmp slt i32 %52, %56
  br i1 %57, label %59, label %58

58:                                               ; preds = %51
  call void @llvm.lifetime.end.p0(i64 4, ptr %10) #6
  br label %91

59:                                               ; preds = %51
  call void @llvm.lifetime.start.p0(i64 4, ptr %11) #6
  %60 = load i32, ptr %8, align 4, !tbaa !8
  %61 = getelementptr inbounds nuw %"class.icu_77::double_conversion::Bignum", ptr %16, i32 0, i32 0
  %62 = load i16, ptr %61, align 4, !tbaa !12
  %63 = sext i16 %62 to i32
  %64 = icmp slt i32 %60, %63
  br i1 %64, label %65, label %69

65:                                               ; preds = %59
  %66 = load i32, ptr %8, align 4, !tbaa !8
  %67 = call noundef nonnull align 4 dereferenceable(4) ptr @_ZN6icu_7717double_conversion6Bignum8RawBigitEi(ptr noundef nonnull align 4 dereferenceable(516) %16, i32 noundef %66)
  %68 = load i32, ptr %67, align 4, !tbaa !8
  br label %70

69:                                               ; preds = %59
  br label %70

70:                                               ; preds = %69, %65
  %71 = phi i32 [ %68, %65 ], [ 0, %69 ]
  store i32 %71, ptr %11, align 4, !tbaa !8
  call void @llvm.lifetime.start.p0(i64 4, ptr %12) #6
  %72 = load i32, ptr %11, align 4, !tbaa !8
  %73 = load ptr, ptr %4, align 8, !tbaa !3
  %74 = load i32, ptr %10, align 4, !tbaa !8
  %75 = call noundef nonnull align 4 dereferenceable(4) ptr @_ZNK6icu_7717double_conversion6Bignum8RawBigitEi(ptr noundef nonnull align 4 dereferenceable(516) %73, i32 noundef %74)
  %76 = load i32, ptr %75, align 4, !tbaa !8
  %77 = add i32 %72, %76
  %78 = load i32, ptr %7, align 4, !tbaa !8
  %79 = add i32 %77, %78
  store i32 %79, ptr %12, align 4, !tbaa !8
  %80 = load i32, ptr %12, align 4, !tbaa !8
  %81 = and i32 %80, 268435455
  %82 = load i32, ptr %8, align 4, !tbaa !8
  %83 = call noundef nonnull align 4 dereferenceable(4) ptr @_ZN6icu_7717double_conversion6Bignum8RawBigitEi(ptr noundef nonnull align 4 dereferenceable(516) %16, i32 noundef %82)
  store i32 %81, ptr %83, align 4, !tbaa !8
  %84 = load i32, ptr %12, align 4, !tbaa !8
  %85 = lshr i32 %84, 28
  store i32 %85, ptr %7, align 4, !tbaa !8
  %86 = load i32, ptr %8, align 4, !tbaa !8
  %87 = add nsw i32 %86, 1
  store i32 %87, ptr %8, align 4, !tbaa !8
  call void @llvm.lifetime.end.p0(i64 4, ptr %12) #6
  call void @llvm.lifetime.end.p0(i64 4, ptr %11) #6
  br label %88

88:                                               ; preds = %70
  %89 = load i32, ptr %10, align 4, !tbaa !8
  %90 = add nsw i32 %89, 1
  store i32 %90, ptr %10, align 4, !tbaa !8
  br label %51, !llvm.loop !36

91:                                               ; preds = %58
  br label %92

92:                                               ; preds = %106, %91
  %93 = load i32, ptr %7, align 4, !tbaa !8
  %94 = icmp ne i32 %93, 0
  br i1 %94, label %95, label %119

95:                                               ; preds = %92
  call void @llvm.lifetime.start.p0(i64 4, ptr %13) #6
  %96 = load i32, ptr %8, align 4, !tbaa !8
  %97 = getelementptr inbounds nuw %"class.icu_77::double_conversion::Bignum", ptr %16, i32 0, i32 0
  %98 = load i16, ptr %97, align 4, !tbaa !12
  %99 = sext i16 %98 to i32
  %100 = icmp slt i32 %96, %99
  br i1 %100, label %101, label %105

101:                                              ; preds = %95
  %102 = load i32, ptr %8, align 4, !tbaa !8
  %103 = call noundef nonnull align 4 dereferenceable(4) ptr @_ZN6icu_7717double_conversion6Bignum8RawBigitEi(ptr noundef nonnull align 4 dereferenceable(516) %16, i32 noundef %102)
  %104 = load i32, ptr %103, align 4, !tbaa !8
  br label %106

105:                                              ; preds = %95
  br label %106

106:                                              ; preds = %105, %101
  %107 = phi i32 [ %104, %101 ], [ 0, %105 ]
  store i32 %107, ptr %13, align 4, !tbaa !8
  call void @llvm.lifetime.start.p0(i64 4, ptr %14) #6
  %108 = load i32, ptr %13, align 4, !tbaa !8
  %109 = load i32, ptr %7, align 4, !tbaa !8
  %110 = add i32 %108, %109
  store i32 %110, ptr %14, align 4, !tbaa !8
  %111 = load i32, ptr %14, align 4, !tbaa !8
  %112 = and i32 %111, 268435455
  %113 = load i32, ptr %8, align 4, !tbaa !8
  %114 = call noundef nonnull align 4 dereferenceable(4) ptr @_ZN6icu_7717double_conversion6Bignum8RawBigitEi(ptr noundef nonnull align 4 dereferenceable(516) %16, i32 noundef %113)
  store i32 %112, ptr %114, align 4, !tbaa !8
  %115 = load i32, ptr %14, align 4, !tbaa !8
  %116 = lshr i32 %115, 28
  store i32 %116, ptr %7, align 4, !tbaa !8
  %117 = load i32, ptr %8, align 4, !tbaa !8
  %118 = add nsw i32 %117, 1
  store i32 %118, ptr %8, align 4, !tbaa !8
  call void @llvm.lifetime.end.p0(i64 4, ptr %14) #6
  call void @llvm.lifetime.end.p0(i64 4, ptr %13) #6
  br label %92, !llvm.loop !37

119:                                              ; preds = %92
  call void @llvm.lifetime.start.p0(i64 4, ptr %15) #6
  %120 = getelementptr inbounds nuw %"class.icu_77::double_conversion::Bignum", ptr %16, i32 0, i32 0
  %121 = load i16, ptr %120, align 4, !tbaa !12
  %122 = sext i16 %121 to i32
  store i32 %122, ptr %15, align 4, !tbaa !8
  %123 = call noundef nonnull align 4 dereferenceable(4) ptr @_ZSt3maxIiERKT_S2_S2_(ptr noundef nonnull align 4 dereferenceable(4) %8, ptr noundef nonnull align 4 dereferenceable(4) %15)
  %124 = load i32, ptr %123, align 4, !tbaa !8
  %125 = trunc i32 %124 to i16
  %126 = getelementptr inbounds nuw %"class.icu_77::double_conversion::Bignum", ptr %16, i32 0, i32 0
  store i16 %125, ptr %126, align 4, !tbaa !12
  call void @llvm.lifetime.end.p0(i64 4, ptr %15) #6
  call void @llvm.lifetime.end.p0(i64 4, ptr %8) #6
  call void @llvm.lifetime.end.p0(i64 4, ptr %7) #6
  ret void
}